; Function Attrs: mustprogress nounwind uwtable
define dso_local noundef ptr @_ZNK4llvm27TargetLoweringObjectFileELF24getExplicitSectionGlobalEPKNS_12GlobalObjectENS_11SectionKindERKNS_13TargetMachineE(ptr noundef nonnull align 8 dereferenceable(1026) %0, ptr noundef %1, i32 %2, ptr noundef nonnull align 8 dereferenceable(1232) %3) unnamed_addr #0 align 2 {
  %5 = getelementptr inbounds nuw i8, ptr %0, i64 904
  %6 = load ptr, ptr %5, align 8
  %7 = getelementptr inbounds nuw i8, ptr %0, i64 912
  %8 = load ptr, ptr %7, align 8
  %9 = getelementptr inbounds nuw i8, ptr %0, i64 976
  %10 = getelementptr inbounds i8, ptr %0, i64 984
  %11 = load ptr, ptr %10, align 8
  %12 = load ptr, ptr %9, align 8
  %13 = icmp eq ptr %11, %12
  br i1 %13, label %14, label %24

14:                                               ; preds = %4
  %15 = getelementptr inbounds i8, ptr %0, i64 996
  %16 = load i32, ptr %15, align 4
  %17 = zext i32 %16 to i64
  %18 = getelementptr inbounds ptr, ptr %12, i64 %17
  %.not1317.i.i = icmp eq i32 %16, 0
  br i1 %.not1317.i.i, label %._crit_edge.i.i, label %.lr.ph.i.i

.lr.ph.i.i:                                       ; preds = %14, %21
  %.01118.i.i = phi ptr [ %22, %21 ], [ %12, %14 ]
  %19 = load ptr, ptr %.01118.i.i, align 8
  %20 = icmp eq ptr %19, %1
  br i1 %20, label %_ZNK4llvm15SmallPtrSetImplIPNS_12GlobalObjectEE5countEPKS1_.exit, label %21

21:                                               ; preds = %.lr.ph.i.i
  %22 = getelementptr inbounds i8, ptr %.01118.i.i, i64 8
  %.not13.i.i = icmp eq ptr %22, %18
  br i1 %.not13.i.i, label %._crit_edge.i.i, label %.lr.ph.i.i, !llvm.loop !32

._crit_edge.i.i:                                  ; preds = %21, %14
  %23 = getelementptr inbounds ptr, ptr %11, i64 %17
  br label %_ZNK4llvm15SmallPtrSetImplIPNS_12GlobalObjectEE5countEPKS1_.exit

24:                                               ; preds = %4
  %25 = tail call noundef ptr @_ZNK4llvm19SmallPtrSetImplBase6doFindEPKv(ptr noundef nonnull align 8 dereferenceable(28) %9, ptr noundef %1) #24
  %.not.i.i = icmp eq ptr %25, null
  %.pre.i = load ptr, ptr %10, align 8
  %.pre4.i = load ptr, ptr %9, align 8
  br i1 %.not.i.i, label %26, label %._ZNK4llvm19SmallPtrSetImplBase8find_impEPKv.exit_crit_edge.i

._ZNK4llvm19SmallPtrSetImplBase8find_impEPKv.exit_crit_edge.i: ; preds = %24
  %.phi.trans.insert.i = getelementptr inbounds i8, ptr %0, i64 996
  %.pre5.i = load i32, ptr %.phi.trans.insert.i, align 4
  br label %_ZNK4llvm15SmallPtrSetImplIPNS_12GlobalObjectEE5countEPKS1_.exit

26:                                               ; preds = %24
  %27 = icmp eq ptr %.pre.i, %.pre4.i
  %28 = getelementptr inbounds i8, ptr %0, i64 996
  %29 = load i32, ptr %28, align 4
  %30 = getelementptr inbounds i8, ptr %0, i64 992
  %31 = load i32, ptr %30, align 8
  %.v.v.i14.i.i = select i1 %27, i32 %29, i32 %31
  %.v.i15.i.i = zext i32 %.v.v.i14.i.i to i64
  %32 = getelementptr inbounds ptr, ptr %.pre.i, i64 %.v.i15.i.i
  br label %_ZNK4llvm15SmallPtrSetImplIPNS_12GlobalObjectEE5countEPKS1_.exit

_ZNK4llvm15SmallPtrSetImplIPNS_12GlobalObjectEE5countEPKS1_.exit: ; preds = %.lr.ph.i.i, %._crit_edge.i.i, %._ZNK4llvm19SmallPtrSetImplBase8find_impEPKv.exit_crit_edge.i, %26
  %33 = phi i32 [ %16, %._crit_edge.i.i ], [ %29, %26 ], [ %.pre5.i, %._ZNK4llvm19SmallPtrSetImplBase8find_impEPKv.exit_crit_edge.i ], [ %16, %.lr.ph.i.i ]
  %34 = phi ptr [ %11, %._crit_edge.i.i ], [ %.pre4.i, %26 ], [ %.pre4.i, %._ZNK4llvm19SmallPtrSetImplBase8find_impEPKv.exit_crit_edge.i ], [ %11, %.lr.ph.i.i ]
  %35 = phi ptr [ %11, %._crit_edge.i.i ], [ %.pre.i, %26 ], [ %.pre.i, %._ZNK4llvm19SmallPtrSetImplBase8find_impEPKv.exit_crit_edge.i ], [ %11, %.lr.ph.i.i ]
  %.0.i.i = phi ptr [ %23, %._crit_edge.i.i ], [ %32, %26 ], [ %25, %._ZNK4llvm19SmallPtrSetImplBase8find_impEPKv.exit_crit_edge.i ], [ %.01118.i.i, %.lr.ph.i.i ]
  %36 = getelementptr inbounds nuw i8, ptr %0, i64 972
  %37 = icmp eq ptr %35, %34
  %38 = getelementptr inbounds i8, ptr %0, i64 992
  %39 = load i32, ptr %38, align 8
  %.v.v.i.i = select i1 %37, i32 %33, i32 %39
  %.v.i.i = zext i32 %.v.v.i.i to i64
  %40 = getelementptr inbounds ptr, ptr %35, i64 %.v.i.i
  %41 = icmp ne ptr %.0.i.i, %40
  %42 = tail call fastcc noundef ptr @_ZL27selectExplicitSectionGlobalPKN4llvm12GlobalObjectENS_11SectionKindERKNS_13TargetMachineERNS_9MCContextERNS_7ManglerERjbb(ptr noundef %1, i32 %2, ptr noundef nonnull align 8 dereferenceable(1232) %3, ptr noundef nonnull align 8 dereferenceable(2432) %6, ptr noundef nonnull align 8 dereferenceable(24) %8, ptr noundef nonnull align 4 dereferenceable(4) %36, i1 noundef zeroext %41, i1 noundef zeroext false)
  ret ptr %42
}